; Function Attrs: nounwind uwtable
define hidden i32 @_ir_CALL_2(ptr nocapture noundef %0, i32 noundef %1, i32 noundef %2, i32 noundef %3, i32 noundef %4) local_unnamed_addr #0 {
  %6 = getelementptr inbounds i8, ptr %0, i64 8
  %7 = load i32, ptr %6, align 8
  %8 = add nsw i32 %7, 1
  %9 = getelementptr inbounds i8, ptr %0, i64 12
  %10 = load i32, ptr %9, align 4
  %.not22.i = icmp slt i32 %8, %10
  %.pre30.i = load ptr, ptr %0, align 8
  br i1 %.not22.i, label %ir_emit_N.exit, label %.lr.ph.i

.lr.ph.i:                                         ; preds = %5
  %11 = getelementptr inbounds i8, ptr %0, i64 20
  %.pre29.i = load i32, ptr %11, align 4
  br label %12

12:                                               ; preds = %12, %.lr.ph.i
  %13 = phi i32 [ %.pre29.i, %.lr.ph.i ], [ %27, %12 ]
  %14 = phi ptr [ %.pre30.i, %.lr.ph.i ], [ %29, %12 ]
  %15 = phi i32 [ %10, %.lr.ph.i ], [ %30, %12 ]
  %16 = icmp slt i32 %15, 4096
  %17 = shl nsw i32 %15, 1
  %18 = icmp ult i32 %15, 8192
  %19 = add nuw nsw i32 %15, 4096
  %spec.select.i.i = select i1 %18, i32 8192, i32 %19
  %.sink.i.i = select i1 %16, i32 %17, i32 %spec.select.i.i
  store i32 %.sink.i.i, ptr %9, align 4
  %20 = sext i32 %13 to i64
  %21 = sub nsw i64 0, %20
  %22 = getelementptr inbounds %struct._ir_insn, ptr %14, i64 %21
  %23 = add nsw i32 %.sink.i.i, %13
  %24 = sext i32 %23 to i64
  %25 = shl nsw i64 %24, 4
  %26 = tail call ptr @_erealloc(ptr noundef %22, i64 noundef %25) #24
  %27 = load i32, ptr %11, align 4
  %28 = sext i32 %27 to i64
  %29 = getelementptr inbounds %struct._ir_insn, ptr %26, i64 %28
  store ptr %29, ptr %0, align 8
  %30 = load i32, ptr %9, align 4
  %.not.i = icmp slt i32 %8, %30
  br i1 %.not.i, label %ir_emit_N.exit, label %12

ir_emit_N.exit:                                   ; preds = %12, %5
  %31 = phi ptr [ %.pre30.i, %5 ], [ %29, %12 ]
  %32 = shl i32 %1, 8
  %33 = and i32 %32, 16514816
  %34 = add i32 %7, 2
  store i32 %34, ptr %6, align 8
  %35 = sext i32 %7 to i64
  %36 = getelementptr inbounds %struct._ir_insn, ptr %31, i64 %35
  %37 = or disjoint i32 %33, 262213
  store i32 %37, ptr %36, align 8
  %38 = shl nsw i64 %35, 4
  %39 = or disjoint i64 %38, 4
  %scevgep.i = getelementptr i8, ptr %31, i64 %39
  tail call void @llvm.memset.p0.i64(ptr noundef nonnull align 4 dereferenceable(28) %scevgep.i, i8 0, i64 28, i1 false)
  %40 = getelementptr inbounds i8, ptr %0, i64 248
  %41 = load i32, ptr %40, align 8
  %42 = load ptr, ptr %0, align 8
  %43 = getelementptr inbounds %struct._ir_insn, ptr %42, i64 %35, i32 0, i32 1
  store i32 %41, ptr %43, align 4
  %44 = load ptr, ptr %0, align 8
  %45 = getelementptr inbounds %struct._ir_insn, ptr %44, i64 %35, i32 1
  store i32 %2, ptr %45, align 4
  %46 = load ptr, ptr %0, align 8
  %47 = getelementptr inbounds %struct._ir_insn, ptr %46, i64 %35
  %48 = getelementptr inbounds i8, ptr %47, i64 12
  store i32 %3, ptr %48, align 4
  %49 = load ptr, ptr %0, align 8
  %50 = getelementptr inbounds %struct._ir_insn, ptr %49, i64 %35
  %51 = getelementptr inbounds i8, ptr %50, i64 16
  store i32 %4, ptr %51, align 4
  store i32 %7, ptr %40, align 8
  ret i32 %7
}